target datalayout = "e-m:e-p270:32:32-p271:32:32-p272:64:64-i64:64-i128:128-f80:128-n8:16:32:64-S128"
target triple = "x86_64-pc-linux-gnu"

%struct.AFFTFiltContext = type { ptr, ptr, ptr, i32, ptr, ptr, ptr, ptr, ptr, ptr, ptr, i32, i32, i32, ptr, ptr, i32, float, ptr, ptr, i32, ptr }
%struct.AVComplexFloat = type { float, float }

; Function Attrs: alwaysinline nounwind willreturn memory(none) uwtable
define internal i32 @av_clip_c(i32 noundef %0, i32 noundef %1, i32 noundef %2) #6 {
  %4 = alloca i32, align 4
  %5 = alloca i32, align 4
  %6 = alloca i32, align 4
  %7 = alloca i32, align 4
  store i32 %0, ptr %5, align 4, !tbaa !24
  store i32 %1, ptr %6, align 4, !tbaa !24
  store i32 %2, ptr %7, align 4, !tbaa !24
  %8 = load i32, ptr %5, align 4, !tbaa !24
  %9 = load i32, ptr %6, align 4, !tbaa !24
  %10 = icmp slt i32 %8, %9
  br i1 %10, label %11, label %13

11:                                               ; preds = %3
  %12 = load i32, ptr %6, align 4, !tbaa !24
  store i32 %12, ptr %4, align 4
  br label %21

13:                                               ; preds = %3
  %14 = load i32, ptr %5, align 4, !tbaa !24
  %15 = load i32, ptr %7, align 4, !tbaa !24
  %16 = icmp sgt i32 %14, %15
  br i1 %16, label %17, label %19

17:                                               ; preds = %13
  %18 = load i32, ptr %7, align 4, !tbaa !24
  store i32 %18, ptr %4, align 4
  br label %21

19:                                               ; preds = %13
  %20 = load i32, ptr %5, align 4, !tbaa !24
  store i32 %20, ptr %4, align 4
  br label %21

21:                                               ; preds = %19, %17, %11
  %22 = load i32, ptr %4, align 4
  ret i32 %22
}

; Function Attrs: inlinehint nounwind uwtable
define internal double @getimag(ptr noundef %0, double noundef %1, double noundef %2) #4 {
  %4 = alloca ptr, align 8
  %5 = alloca double, align 8
  %6 = alloca double, align 8
  %7 = alloca ptr, align 8
  %8 = alloca i32, align 4
  %9 = alloca i32, align 4
  store ptr %0, ptr %4, align 8, !tbaa !107
  store double %1, ptr %5, align 8, !tbaa !98
  store double %2, ptr %6, align 8, !tbaa !98
  call void @llvm.lifetime.start.p0(i64 8, ptr %7) #11
  %10 = load ptr, ptr %4, align 8, !tbaa !107
  store ptr %10, ptr %7, align 8, !tbaa !22
  call void @llvm.lifetime.start.p0(i64 4, ptr %8) #11
  call void @llvm.lifetime.start.p0(i64 4, ptr %9) #11
  %11 = load double, ptr %6, align 8, !tbaa !98
  %12 = fptosi double %11 to i32
  %13 = load ptr, ptr %7, align 8, !tbaa !22
  %14 = getelementptr inbounds nuw %struct.AFFTFiltContext, ptr %13, i32 0, i32 11
  %15 = load i32, ptr %14, align 8, !tbaa !40
  %16 = sub nsw i32 %15, 1
  %17 = call i32 @av_clip_c(i32 noundef %12, i32 noundef 0, i32 noundef %16) #13
  store i32 %17, ptr %8, align 4, !tbaa !24
  %18 = load double, ptr %5, align 8, !tbaa !98
  %19 = fptosi double %18 to i32
  %20 = load ptr, ptr %7, align 8, !tbaa !22
  %21 = getelementptr inbounds nuw %struct.AFFTFiltContext, ptr %20, i32 0, i32 13
  %22 = load i32, ptr %21, align 8, !tbaa !68
  %23 = sdiv i32 %22, 2
  %24 = call i32 @av_clip_c(i32 noundef %19, i32 noundef 0, i32 noundef %23) #13
  store i32 %24, ptr %9, align 4, !tbaa !24
  %25 = load ptr, ptr %7, align 8, !tbaa !22
  %26 = getelementptr inbounds nuw %struct.AFFTFiltContext, ptr %25, i32 0, i32 9
  %27 = load ptr, ptr %26, align 8, !tbaa !36
  %28 = load i32, ptr %8, align 4, !tbaa !24
  %29 = sext i32 %28 to i64
  %30 = getelementptr inbounds ptr, ptr %27, i64 %29
  %31 = load ptr, ptr %30, align 8, !tbaa !69
  %32 = load i32, ptr %9, align 4, !tbaa !24
  %33 = sext i32 %32 to i64
  %34 = getelementptr inbounds %struct.AVComplexFloat, ptr %31, i64 %33
  %35 = getelementptr inbounds nuw %struct.AVComplexFloat, ptr %34, i32 0, i32 1
  %36 = load float, ptr %35, align 4, !tbaa !110
  %37 = fpext nsz float %36 to double
  call void @llvm.lifetime.end.p0(i64 4, ptr %9) #11
  call void @llvm.lifetime.end.p0(i64 4, ptr %8) #11
  call void @llvm.lifetime.end.p0(i64 8, ptr %7) #11
  ret double %37
}

; Function Attrs: nounwind uwtable
define internal double @imagf(ptr noundef %0, double noundef %1, double noundef %2) #1 {
  %4 = alloca ptr, align 8
  %5 = alloca double, align 8
  %6 = alloca double, align 8
  store ptr %0, ptr %4, align 8, !tbaa !107
  store double %1, ptr %5, align 8, !tbaa !98
  store double %2, ptr %6, align 8, !tbaa !98
  %7 = load ptr, ptr %4, align 8, !tbaa !107
  %8 = load double, ptr %5, align 8, !tbaa !98
  %9 = load double, ptr %6, align 8, !tbaa !98
  %10 = call nsz double @getimag(ptr noundef %7, double noundef %8, double noundef %9)
  ret double %10
}