; Function Attrs: mustprogress nofree norecurse nosync nounwind willreturn memory(read, inaccessiblemem: none) uwtable
define internal double @imagf(ptr noundef readonly captures(none) %0, double noundef %1, double noundef %2) #6 {
  %4 = fptosi double %2 to i32
  %5 = getelementptr inbounds nuw i8, ptr %0, i64 88
  %6 = load i32, ptr %5, align 8, !tbaa !35
  %7 = add nsw i32 %6, -1
  %8 = icmp slt i32 %4, 0
  %..i7.i = tail call i32 @llvm.smin.i32(i32 %7, i32 %4)
  %.0.i8.i = select i1 %8, i32 0, i32 %..i7.i
  %9 = fptosi double %1 to i32
  %10 = getelementptr inbounds nuw i8, ptr %0, i64 96
  %11 = load i32, ptr %10, align 8, !tbaa !56
  %12 = sdiv i32 %11, 2
  %13 = icmp slt i32 %9, 0
  %..i.i = tail call i32 @llvm.smin.i32(i32 %12, i32 %9)
  %.0.i.i = select i1 %13, i32 0, i32 %..i.i
  %14 = getelementptr inbounds nuw i8, ptr %0, i64 72
  %15 = load ptr, ptr %14, align 8, !tbaa !31
  %16 = sext i32 %.0.i8.i to i64
  %17 = getelementptr inbounds ptr, ptr %15, i64 %16
  %18 = load ptr, ptr %17, align 8, !tbaa !67
  %19 = sext i32 %.0.i.i to i64
  %20 = getelementptr inbounds %struct.AVComplexFloat, ptr %18, i64 %19, i32 1
  %21 = load float, ptr %20, align 4, !tbaa !73
  %22 = fpext nsz float %21 to double
  ret double %22
}